; Function Attrs: mustprogress uwtable
define dso_local void @_ZNK3tev9IpcPacket21interpretAsCloseImageEv(ptr dead_on_unwind noalias writable sret(%"struct.tev::IpcPacketCloseImage") align 8 %0, ptr noundef nonnull align 8 dereferenceable(24) %1) local_unnamed_addr #3 align 2 personality ptr @__gxx_personality_v0 {
  %3 = alloca %"class.tev::IpcPacket::IStream", align 8
  tail call void @llvm.memset.p0.i64(ptr noundef nonnull align 8 dereferenceable(24) %0, i8 0, i64 24, i1 false)
  invoke void @_ZN3tev9IpcPacket7IStreamC2ERKNSt3__16vectorIcNS2_9allocatorIcEEEE(ptr noundef nonnull align 8 dereferenceable(16) %3, ptr noundef nonnull align 8 dereferenceable(24) %1)
          to label %4 unwind label %26

4:                                                ; preds = %2
  %5 = load ptr, ptr %3, align 8
  %6 = getelementptr inbounds i8, ptr %5, i64 8
  %7 = load ptr, ptr %6, align 8
  %8 = load ptr, ptr %5, align 8
  %9 = ptrtoint ptr %7 to i64
  %10 = ptrtoint ptr %8 to i64
  %11 = sub i64 %9, %10
  %12 = getelementptr inbounds i8, ptr %3, i64 8
  %13 = load i64, ptr %12, align 8
  %14 = add i64 %13, 1
  %15 = icmp ult i64 %11, %14
  br i1 %15, label %16, label %21

16:                                               ; preds = %4
  %17 = call ptr @__cxa_allocate_exception(i64 16) #25
  invoke void @_ZNSt13runtime_errorC1EPKc(ptr noundef nonnull align 8 dereferenceable(16) %17, ptr noundef nonnull @.str.48)
          to label %.invoke unwind label %19

.invoke:                                          ; preds = %24, %16
  %18 = phi ptr [ %17, %16 ], [ %25, %24 ]
  invoke void @__cxa_throw(ptr nonnull %18, ptr nonnull @_ZTISt13runtime_error, ptr nonnull @_ZNSt13runtime_errorD1Ev) #27
          to label %.cont unwind label %26

.cont:                                            ; preds = %.invoke
  unreachable

19:                                               ; preds = %16
  %20 = landingpad { ptr, i32 }
          cleanup
  call void @__cxa_free_exception(ptr %17) #25
  br label %.body

21:                                               ; preds = %4
  %22 = getelementptr inbounds i8, ptr %8, i64 %13
  %23 = load i8, ptr %22, align 1
  store i64 %14, ptr %12, align 8
  %.not = icmp eq i8 %23, 2
  br i1 %.not, label %30, label %24

24:                                               ; preds = %21
  %25 = call ptr @__cxa_allocate_exception(i64 16) #25
  invoke void @_ZNSt13runtime_errorC1EPKc(ptr noundef nonnull align 8 dereferenceable(16) %25, ptr noundef nonnull @.str.10)
          to label %.invoke unwind label %28

26:                                               ; preds = %.invoke, %30, %2
  %27 = landingpad { ptr, i32 }
          cleanup
  br label %.body

28:                                               ; preds = %24
  %29 = landingpad { ptr, i32 }
          cleanup
  call void @__cxa_free_exception(ptr %25) #25
  br label %.body

30:                                               ; preds = %21
  %31 = invoke noundef nonnull align 8 dereferenceable(16) ptr @_ZN3tev9IpcPacket7IStreamrsERNSt3__112basic_stringIcNS2_11char_traitsIcEENS2_9allocatorIcEEEE(ptr noundef nonnull align 8 dereferenceable(16) %3, ptr noundef nonnull align 8 dereferenceable(24) %0)
          to label %32 unwind label %26

32:                                               ; preds = %30
  ret void

.body:                                            ; preds = %26, %19, %28
  %.pn = phi { ptr, i32 } [ %29, %28 ], [ %27, %26 ], [ %20, %19 ]
  call void @_ZNSt3__112basic_stringIcNS_11char_traitsIcEENS_9allocatorIcEEED1Ev(ptr noundef nonnull align 8 dereferenceable(24) %0) #25
  resume { ptr, i32 } %.pn
}